; Function Attrs: nounwind uwtable
define internal void @_cjk_free(ptr noundef %0) #0 {
  %2 = tail call ptr @PyModule_GetState(ptr noundef %0) #7
  %3 = getelementptr inbounds nuw i8, ptr %2, i64 8
  %4 = load ptr, ptr %3, align 8, !tbaa !3
  tail call void @PyMem_Free(ptr noundef %4) #7
  %5 = getelementptr inbounds nuw i8, ptr %2, i64 16
  %6 = load ptr, ptr %5, align 8, !tbaa !11
  tail call void @PyMem_Free(ptr noundef %6) #7
  ret void
}